target datalayout = "e-m:e-p270:32:32-p271:32:32-p272:64:64-i64:64-i128:128-f80:128-n8:16:32:64-S128"
target triple = "x86_64-unknown-linux-gnu"

%class.small_object_allocator = type { [32 x ptr], [32 x ptr], i64 }

; Function Attrs: mustprogress nounwind uwtable
define hidden noundef i64 @_ZNK22small_object_allocator15get_wasted_sizeEv(ptr noundef nonnull align 8 dereferenceable(520) %this) #4 align 2 {
entry:
  %this.addr = alloca ptr, align 8
  %r = alloca i64, align 8
  %slot_id = alloca i32, align 4
  %slot_obj_size = alloca i64, align 8
  %ptr = alloca ptr, align 8
  store ptr %this, ptr %this.addr, align 8
  %this1 = load ptr, ptr %this.addr, align 8
  store i64 0, ptr %r, align 8
  store i32 0, ptr %slot_id, align 4
  br label %for.cond

for.cond:                                         ; preds = %for.inc, %entry
  %0 = load i32, ptr %slot_id, align 4
  %cmp = icmp ult i32 %0, 32
  br i1 %cmp, label %for.body, label %for.end

for.body:                                         ; preds = %for.cond
  %1 = load i32, ptr %slot_id, align 4
  %shl = shl i32 %1, 3
  %conv = zext i32 %shl to i64
  store i64 %conv, ptr %slot_obj_size, align 8
  %m_free_list = getelementptr inbounds %class.small_object_allocator, ptr %this1, i32 0, i32 1
  %2 = load i32, ptr %slot_id, align 4
  %idxprom = zext i32 %2 to i64
  %arrayidx = getelementptr inbounds [32 x ptr], ptr %m_free_list, i64 0, i64 %idxprom
  %3 = load ptr, ptr %arrayidx, align 8
  store ptr %3, ptr %ptr, align 8
  br label %while.cond

while.cond:                                       ; preds = %while.body, %for.body
  %4 = load ptr, ptr %ptr, align 8
  %cmp2 = icmp ne ptr %4, null
  br i1 %cmp2, label %while.body, label %while.end

while.body:                                       ; preds = %while.cond
  %5 = load i64, ptr %slot_obj_size, align 8
  %6 = load i64, ptr %r, align 8
  %add = add i64 %6, %5
  store i64 %add, ptr %r, align 8
  %7 = load ptr, ptr %ptr, align 8
  %8 = load ptr, ptr %7, align 8
  store ptr %8, ptr %ptr, align 8
  br label %while.cond, !llvm.loop !10

while.end:                                        ; preds = %while.cond
  br label %for.inc

for.inc:                                          ; preds = %while.end
  %9 = load i32, ptr %slot_id, align 4
  %inc = add i32 %9, 1
  store i32 %inc, ptr %slot_id, align 4
  br label %for.cond, !llvm.loop !11

for.end:                                          ; preds = %for.cond
  %10 = load i64, ptr %r, align 8
  ret i64 %10
}