; Function Attrs: mustprogress nofree norecurse nosync nounwind willreturn memory(read, inaccessiblemem: none) uwtable
define hidden noundef i64 @_ZNK22small_object_allocator15get_wasted_sizeEv(ptr nocapture noundef nonnull readonly align 8 dereferenceable(520) %this) local_unnamed_addr #7 align 2 {
entry:
  %m_free_list = getelementptr inbounds i8, ptr %this, i64 256
  br label %for.body

for.body:                                         ; preds = %entry, %for.inc
  %indvars.iv = phi i64 [ 0, %entry ], [ %indvars.iv.next, %for.inc ]
  %r.07 = phi i64 [ 0, %entry ], [ %r.1, %for.inc ]
  %0 = shl nuw nsw i64 %indvars.iv, 3
  %arrayidx = getelementptr inbounds [32 x ptr], ptr %m_free_list, i64 0, i64 %indvars.iv
  br label %while.cond

while.cond:                                       ; preds = %while.cond, %for.body
  %r.1 = phi i64 [ %r.07, %for.body ], [ %add, %while.cond ]
  %ptr.0.in = phi ptr [ %arrayidx, %for.body ], [ %ptr.0, %while.cond ]
  %ptr.0 = load ptr, ptr %ptr.0.in, align 8
  %cmp2.not = icmp eq ptr %ptr.0, null
  %add = add i64 %r.1, %0
  br i1 %cmp2.not, label %for.inc, label %while.cond, !llvm.loop !8

for.inc:                                          ; preds = %while.cond
  %indvars.iv.next = add nuw nsw i64 %indvars.iv, 1
  %exitcond.not = icmp eq i64 %indvars.iv.next, 32
  br i1 %exitcond.not, label %for.end, label %for.body, !llvm.loop !9

for.end:                                          ; preds = %for.inc
  ret i64 %r.1
}